Certificate:
    Data:
        Version: 3 (0x2)
        Serial Number: 4096 (0x1000)
    Signature Algorithm: sha256WithRSAEncryption
        Issuer: C=US, ST=CA, L=SVL, O=Juniper, OU=Contrail
        Validity
            Not Before: Jan  6 09:09:43 2017 GMT
            Not After : Jan  4 09:09:43 2027 GMT
        Subject: C=US, ST=CA, O=Juniper, OU=Contrail, CN=10.2.0.10
        Subject Public Key Info:
            Public Key Algorithm: rsaEncryption
                Public-Key: (2048 bit)
                Modulus:
                    00:a7:7b:15:4b:a7:4b:e3:be:7c:a9:cb:a4:17:6d:
                    10:09:6c:78:1d:9f:66:87:19:24:7e:99:c6:60:49:
                    cf:d3:8c:b9:55:fe:60:6d:f0:ac:1d:e6:fd:2f:3a:
                    d7:87:87:23:7e:6c:11:bc:6c:02:ed:d5:a5:c6:09:
                    53:ce:80:f4:88:1a:0e:90:d5:15:ac:db:a8:9e:23:
                    46:85:e0:05:87:32:8e:61:a5:f9:8c:84:e8:ee:5a:
                    23:02:c5:da:aa:c7:89:59:02:8d:ce:88:ec:92:06:
                    90:10:a1:19:99:7e:f0:ca:48:4a:5a:5a:ef:2c:a1:
                    bf:54:5d:69:d1:5a:2f:00:56:4f:3e:49:59:73:a7:
                    53:0d:a8:f0:ab:61:ab:cc:83:2b:87:a6:90:83:ea:
                    6a:ce:7a:b6:38:25:3a:6a:b5:41:b5:8b:39:65:27:
                    ef:18:bf:2f:b1:27:39:c2:92:92:ad:e1:e0:f5:30:
                    c3:e9:f4:81:0e:85:02:ec:37:6f:a1:56:20:5f:3f:
                    96:be:f9:37:e1:4a:85:ef:69:4f:46:49:9c:3a:a1:
                    b9:a5:7e:d4:2c:ea:bc:b1:9a:f5:1e:4d:2f:46:f2:
                    89:e6:a3:4b:c1:9a:56:71:53:bf:18:0f:07:d7:5e:
                    04:95:0c:78:59:d1:cf:17:b0:5c:f6:a5:25:14:59:
                    1e:8d
                Exponent: 65537 (0x10001)
        X509v3 extensions:
            X509v3 Basic Constraints: 
                CA:FALSE
            X509v3 Key Usage: 
                Digital Signature, Non Repudiation, Key Encipherment
            X509v3 Subject Alternative Name: 
                IP Address:10.2.0.10, DNS:10.2.0.10
    Signature Algorithm: sha256WithRSAEncryption
         90:36:82:12:23:2b:91:9d:75:3c:df:59:e3:96:f8:c1:b8:3d:
         39:aa:70:d9:a8:12:ec:9c:e7:19:06:1a:30:d0:5f:66:f4:08:
         3d:69:21:07:75:d0:31:7b:ce:f6:2e:46:b5:d0:8b:5a:cd:3e:
         b6:e5:13:71:cb:ef:d1:3a:d0:9d:57:19:4e:63:b2:0b:bd:ca:
         bf:54:63:56:c6:18:40:ce:24:f5:7a:fc:bb:c4:16:77:be:9a:
         a7:37:0d:bb:5e:0f:e7:61:be:3a:3c:ca:c2:d7:d3:e5:1d:34:
         8d:ff:9c:51:f8:69:56:3b:4c:c9:0a:12:9e:d9:d7:2e:7a:9e:
         45:e9:12:37:1f:dc:e1:13:08:d0:6e:99:fa:d1:28:37:cd:90:
         bf:ff:06:5f:6e:76:49:db:97:d6:e9:f2:d9:0f:2a:66:d0:d1:
         a0:f2:2f:17:25:1c:c1:96:60:17:4a:83:7f:3c:2b:87:9f:b7:
         ed:e0:67:14:1f:23:68:4a:ce:2a:57:90:0f:23:03:88:55:29:
         e3:00:56:f7:b6:a6:3d:c4:92:78:d7:7d:e6:e4:4b:1a:cc:b8:
         56:60:25:8c:f9:26:bb:5d:7b:24:84:13:a0:11:b6:9f:d5:d9:
         2a:93:02:b7:c8:69:44:02:87:2d:6c:b3:f7:06:ad:54:ca:36:
         58:d6:af:0d:95:ab:3f:34:16:92:62:2b:2f:90:c4:2f:0d:96:
         b5:32:17:6b:69:27:3c:f6:bc:f7:16:d9:39:2e:f4:f1:40:c5:
         e7:2f:88:46:d0:fa:56:e2:1d:37:a1:29:ad:92:38:24:af:20:
         4d:13:63:33:92:3a:d6:cb:fe:ad:39:35:94:a4:c7:e8:be:e8:
         ae:17:cf:5d:09:6b:14:5c:fd:49:4d:9b:28:82:4b:03:ad:c2:
         7c:98:0b:25:a8:a8:24:f5:6c:de:a6:91:ca:3f:e8:99:35:5c:
         39:fd:ba:92:b2:a8:22:62:0e:b3:dd:62:0e:e4:24:96:f9:0c:
         9b:cb:7c:a7:c9:9f:a3:02:90:2a:98:81:8c:05:3a:de:17:4c:
         70:28:6a:61:ad:8d:04:cc:6a:64:3d:a3:68:c8:17:8f:e3:32:
         5b:82:bf:65:6c:f5:70:b1:b3:55:90:9c:0c:ce:66:d8:8a:a6:
         6e:1b:7c:c2:6f:1f:e3:8f:86:12:d0:59:a1:1c:3f:3b:cd:a8:
         ad:11:b8:ee:f9:bc:1d:a3:67:76:17:93:66:67:9e:c9:cb:fc:
         77:ef:19:f8:a4:ea:97:9f:b5:5b:ba:a3:00:44:9e:fe:0f:d9:
         f2:04:64:68:af:6b:c7:d7:ec:2a:9a:78:47:8e:3b:25:7e:d8:
         b8:37:4b:36:89:55:6a:3b
-----BEGIN CERTIFICATE-----
MIIEUjCCAjqgAwIBAgICEAAwDQYJKoZIhvcNAQELBQAwTTELMAkGA1UEBhMCVVMx
CzAJBgNVBAgMAkNBMQwwCgYDVQQHDANTVkwxEDAOBgNVBAoMB0p1bmlwZXIxETAP
BgNVBAsMCENvbnRyYWlsMB4XDTE3MDEwNjA5MDk0M1oXDTI3MDEwNDA5MDk0M1ow
UzELMAkGA1UEBhMCVVMxCzAJBgNVBAgMAkNBMRAwDgYDVQQKDAdKdW5pcGVyMREw
DwYDVQQLDAhDb250cmFpbDESMBAGA1UEAwwJMTAuMi4wLjEwMIIBIjANBgkqhkiG
9w0BAQEFAAOCAQ8AMIIBCgKCAQEAp3sVS6dL4758qcukF20QCWx4HZ9mhxkkfpnG
YEnP04y5Vf5gbfCsHeb9LzrXh4cjfmwRvGwC7dWlxglTzoD0iBoOkNUVrNuoniNG
heAFhzKOYaX5jITo7lojAsXaqseJWQKNzojskgaQEKEZmX7wykhKWlrvLKG/VF1p
0VovAFZPPklZc6dTDajwq2GrzIMrh6aQg+pqznq2OCU6arVBtYs5ZSfvGL8vsSc5
wpKSreHg9TDD6fSBDoUC7DdvoVYgXz+Wvvk34UqF72lPRkmcOqG5pX7ULOq8sZr1
Hk0vRvKJ5qNLwZpWcVO/GA8H114ElQx4WdHPF7Bc9qUlFFkejQIDAQABozYwNDAJ
BgNVHRMEAjAAMAsGA1UdDwQEAwIF4DAaBgNVHREEEzARhwQKAgAKggkxMC4yLjAu
MTAwDQYJKoZIhvcNAQELBQADggIBAJA2ghIjK5GddTzfWeOW+MG4PTmqcNmoEuyc
5xkGGjDQX2b0CD1pIQd10DF7zvYuRrXQi1rNPrblE3HL79E60J1XGU5jsgu9yr9U
Y1bGGEDOJPV6/LvEFne+mqc3DbteD+dhvjo8ysLX0+UdNI3/nFH4aVY7TMkKEp7Z
1y56nkXpEjcf3OETCNBumfrRKDfNkL//Bl9udknbl9bp8tkPKmbQ0aDyLxclHMGW
YBdKg388K4eft+3gZxQfI2hKzipXkA8jA4hVKeMAVve2pj3EknjXfebkSxrMuFZg
JYz5JrtdeySEE6ARtp/V2SqTArfIaUQChy1ss/cGrVTKNljWrw2Vqz80FpJiKy+Q
xC8NlrUyF2tpJzz2vPcW2Tku9PFAxecviEbQ+lbiHTehKa2SOCSvIE0TYzOSOtbL
/q05NZSkx+i+6K4Xz10JaxRc/UlNmyiCSwOtwnyYCyWoqCT1bN6mkco/6Jk1XDn9
upKyqCJiDrPdYg7kJJb5DJvLfKfJn6MCkCqYgYwFOt4XTHAoamGtjQTMamQ9o2jI
F4/jMluCv2Vs9XCxs1WQnAzOZtiKpm4bfMJvH+OPhhLQWaEcPzvNqK0RuO75vB2j
Z3YXk2ZnnsnL/HfvGfik6peftVu6owBEnv4P2fIEZGiva8fX7CqaeEeOOyV+2Lg3
SzaJVWo7
-----END CERTIFICATE-----
