-----BEGIN PRIVATE KEY-----
MIICdgIBADANBgkqhkiG9w0BAQEFAASCAmAwggJcAgEAAoGBANSJb9Srlferg6C2
MFwHOrd9mmsXIt20psfuzbZFm4+4oiDoJ4GeKr8nIVocI4G2UD0xoxGkrL2YqNTV
hAb9v3NlO3ZSXIvb29uTFuLMLPYgg/lzycgIfr27a8H1Sh0PINhQbJO7U4et4ECK
lb/UYqPmoRBkhyYDhip9yjVGJapzAgMBAAECgYBN5M0CoZxF+Cs2tG8G23Numm8E
vqb9oF7bua7VFa/MvbtV2h/YhnJeOmYj01pECOBhfRapubPBjPibgGFx+n+2jHoB
hjluxwTv2gT53S7OUcFRL3SkTJP2IaY4c6+Td9JevxvcuRn8MlIl4oU+7Nm/rz3u
v8QfTPvExhdepZqWWQJBAP+lDPugzT6QwX3U5+2VFYfhN6V8LVBGRBJYPhcepuAC
Vhf/F49cCvVuGtWk9YAGR6NUnhEFWFjP3BOtffCLGv0CQQDU1QzFBnK2XVQud15G
8NuHEHEHkleHHYjJ46BpXa58u+9w20Q/l3bKj6sb1W/D+ivMzfRvNYsFEmVfspLZ
/24vAkBbbR29h/6fF4n7hH8FmsG+fK84Abb69IY3wVNDVXT8vBkqL9KvNI2+xIfY
TEx4YsaQBR0anTzBVmUwrGVT94vJAkBdvHejTvO23eP1kx0yoWIOWm9tpkZme9uD
D33W6iuvRBZw3iFw4ISxMhVqbNaMueIQkaTWVf6kfTWosD19RcKBAkEA1wwIR2Mp
7NsaivYD4EyZ3GRtHAJZWn2FJBwDGdeFyV7LlLQiCDS0PPmIeyRRhiTb4VRvJoRA
spMbmaEvyGeZoA==
-----END PRIVATE KEY-----
Certificate:
    Data:
        Version: 1 (0x0)
        Serial Number: 2 (0x2)
    Signature Algorithm: sha1WithRSAEncryption
        Issuer: C=US, ST=California, L=Sunnyvale, O=OpenContrail, CN=10.2.0.10/emailAddress=admin@juniper.com
        Validity
            Not Before: Jan  9 09:37:28 2017 GMT
            Not After : Jan  7 09:37:28 2027 GMT
        Subject: C=US, ST=California, L=Sunnyvale, O=OpenContrail, CN=10.2.0.10/emailAddress=admin@juniper.com
        Subject Public Key Info:
            Public Key Algorithm: rsaEncryption
                Public-Key: (1024 bit)
                Modulus:
                    00:d4:89:6f:d4:ab:95:f7:ab:83:a0:b6:30:5c:07:
                    3a:b7:7d:9a:6b:17:22:dd:b4:a6:c7:ee:cd:b6:45:
                    9b:8f:b8:a2:20:e8:27:81:9e:2a:bf:27:21:5a:1c:
                    23:81:b6:50:3d:31:a3:11:a4:ac:bd:98:a8:d4:d5:
                    84:06:fd:bf:73:65:3b:76:52:5c:8b:db:db:db:93:
                    16:e2:cc:2c:f6:20:83:f9:73:c9:c8:08:7e:bd:bb:
                    6b:c1:f5:4a:1d:0f:20:d8:50:6c:93:bb:53:87:ad:
                    e0:40:8a:95:bf:d4:62:a3:e6:a1:10:64:87:26:03:
                    86:2a:7d:ca:35:46:25:aa:73
                Exponent: 65537 (0x10001)
    Signature Algorithm: sha1WithRSAEncryption
         76:47:ef:7c:d2:0c:2c:49:4a:21:7a:6c:cc:f6:6b:30:41:19:
         32:7a:df:bf:28:e1:76:ba:85:75:ba:99:2f:af:68:1c:8f:e4:
         16:27:85:c1:e8:d6:e0:d5:19:d9:a7:37:81:98:91:d3:f9:82:
         7f:a5:7d:70:85:d3:2f:cc:2a:24:4b:7d:7e:2f:ee:e8:71:fc:
         c3:23:8b:32:b0:54:fc:2b:67:ef:f4:2a:00:98:37:a9:df:05:
         72:2d:c1:e4:14:3e:de:a5:32:98:0a:bc:14:93:e3:b8:a2:7b:
         8d:fb:af:3d:d6:83:d0:35:95:fc:be:8b:25:a6:4e:61:51:d5:
         11:7d
-----BEGIN CERTIFICATE-----
MIICdzCCAeACAQIwDQYJKoZIhvcNAQEFBQAwgYMxCzAJBgNVBAYTAlVTMRMwEQYD
VQQIEwpDYWxpZm9ybmlhMRIwEAYDVQQHEwlTdW5ueXZhbGUxFTATBgNVBAoTDE9w
ZW5Db250cmFpbDESMBAGA1UEAxMJMTAuMi4wLjEwMSAwHgYJKoZIhvcNAQkBFhFh
ZG1pbkBqdW5pcGVyLmNvbTAeFw0xNzAxMDkwOTM3MjhaFw0yNzAxMDcwOTM3Mjha
MIGDMQswCQYDVQQGEwJVUzETMBEGA1UECBMKQ2FsaWZvcm5pYTESMBAGA1UEBxMJ
U3Vubnl2YWxlMRUwEwYDVQQKEwxPcGVuQ29udHJhaWwxEjAQBgNVBAMTCTEwLjIu
MC4xMDEgMB4GCSqGSIb3DQEJARYRYWRtaW5AanVuaXBlci5jb20wgZ8wDQYJKoZI
hvcNAQEBBQADgY0AMIGJAoGBANSJb9Srlferg6C2MFwHOrd9mmsXIt20psfuzbZF
m4+4oiDoJ4GeKr8nIVocI4G2UD0xoxGkrL2YqNTVhAb9v3NlO3ZSXIvb29uTFuLM
LPYgg/lzycgIfr27a8H1Sh0PINhQbJO7U4et4ECKlb/UYqPmoRBkhyYDhip9yjVG
JapzAgMBAAEwDQYJKoZIhvcNAQEFBQADgYEAdkfvfNIMLElKIXpszPZrMEEZMnrf
vyjhdrqFdbqZL69oHI/kFieFwejW4NUZ2ac3gZiR0/mCf6V9cIXTL8wqJEt9fi/u
6HH8wyOLMrBU/Ctn7/QqAJg3qd8Fci3B5BQ+3qUymAq8FJPjuKJ7jfuvPdaD0DWV
/L6LJaZOYVHVEX0=
-----END CERTIFICATE-----
