-----BEGIN PRIVATE KEY-----
MIICdgIBADANBgkqhkiG9w0BAQEFAASCAmAwggJcAgEAAoGBAMsfDHtJtHNiGYIo
bMJo2uzLVMb2bkC92SsK0LR7cR7dFfxtOwteoOKhiewH5RFiWGnKQ0q/JBcjEiI8
isWpvnty2ApSL0pnTCxeSmzWsclnt6fOjImoOuRTaJknhqckJqOOzj4ikyCwVwk8
q5SPl3BRPNTs1wDR+FqOr0P/C82fAgMBAAECgYEAtkGs3G89GI88njqRpDubvP+R
mVmDgloXI/T3YgqlbPEqCi8k3MXTDKev7vcChn+9H2eay9YIly4j1k6Gomf1/osm
6jIYHFPcADRkRTv82un81jy/wWgmaENbyY+DuJ70NiOroUXQ2fz/sM24VcXnXrzu
V0tRsRdsvNB6qaA80GkCQQDxLAwrFv9vOq1gDBI/89jFjMSI2TIqdT+spofQemc+
Q5s/0zgvUYP/h4a+T2YupgFwSjnsEgaQrDnUQ8aAgVwTAkEA15wY3FDRzUBizahq
q0fggUHTIJ5afb4MkUCQYhY2wMMUC7ReRzcCE7Uf9Af2ipLiQTn7fP4yTMPQZP3Z
oAihxQJAM1mPlbUl2gcCV0r6r8c5xoY8am7kcYnZbudeT5NgXC+E5MgSVHDkzAmN
NQQu24vZDpGfV5ZW84LYJUvw/feNJQJAM/r2I2d4rTswltRbox+ZCJCODfcfaeE/
tmUSahNg7+gYFRpPAGxKm+W25mZlEdOHqKIJ94BxMAClZTOuG9744QJAE7IcuWS/
YvTbVgqissWODmi3aPim+uPNghW+565Y1fPdF655f75NAlftmlEGKXZFHJVRMF80
X7TL1PJyTgPtrw==
-----END PRIVATE KEY-----
Certificate:
    Data:
        Version: 1 (0x0)
        Serial Number: 2 (0x2)
    Signature Algorithm: sha1WithRSAEncryption
        Issuer: C=US, ST=California, L=Sunnyvale, O=OpenContrail, CN=10.2.0.10/emailAddress=admin@juniper.com
        Validity
            Not Before: Jan 10 06:19:53 2017 GMT
            Not After : Jan  8 06:19:53 2027 GMT
        Subject: C=US, ST=California, L=Sunnyvale, O=OpenContrail, CN=10.2.0.10/emailAddress=admin@juniper.com
        Subject Public Key Info:
            Public Key Algorithm: rsaEncryption
                Public-Key: (1024 bit)
                Modulus:
                    00:cb:1f:0c:7b:49:b4:73:62:19:82:28:6c:c2:68:
                    da:ec:cb:54:c6:f6:6e:40:bd:d9:2b:0a:d0:b4:7b:
                    71:1e:dd:15:fc:6d:3b:0b:5e:a0:e2:a1:89:ec:07:
                    e5:11:62:58:69:ca:43:4a:bf:24:17:23:12:22:3c:
                    8a:c5:a9:be:7b:72:d8:0a:52:2f:4a:67:4c:2c:5e:
                    4a:6c:d6:b1:c9:67:b7:a7:ce:8c:89:a8:3a:e4:53:
                    68:99:27:86:a7:24:26:a3:8e:ce:3e:22:93:20:b0:
                    57:09:3c:ab:94:8f:97:70:51:3c:d4:ec:d7:00:d1:
                    f8:5a:8e:af:43:ff:0b:cd:9f
                Exponent: 65537 (0x10001)
    Signature Algorithm: sha1WithRSAEncryption
         98:f6:7c:26:eb:1b:cf:c1:79:48:ce:37:45:9f:4e:2d:9e:9d:
         fa:7e:d7:cb:72:74:30:40:88:91:58:6e:d7:73:bf:b1:9f:bc:
         39:61:44:f4:00:cc:3e:32:40:37:fb:fe:06:1c:b3:90:c0:6c:
         71:50:d0:13:7e:16:92:a5:9c:c4:0e:50:9d:03:99:51:fa:d3:
         50:10:2e:c2:2b:dc:85:46:df:14:33:ae:71:0d:2e:db:cb:37:
         8a:bf:7c:89:03:e3:02:b4:9b:b1:0a:fb:ac:a2:fb:f3:37:50:
         d9:3a:87:2a:24:11:ea:98:d7:6a:18:53:9d:40:ce:73:05:67:
         67:c9
-----BEGIN CERTIFICATE-----
MIICdzCCAeACAQIwDQYJKoZIhvcNAQEFBQAwgYMxCzAJBgNVBAYTAlVTMRMwEQYD
VQQIEwpDYWxpZm9ybmlhMRIwEAYDVQQHEwlTdW5ueXZhbGUxFTATBgNVBAoTDE9w
ZW5Db250cmFpbDESMBAGA1UEAxMJMTAuMi4wLjEwMSAwHgYJKoZIhvcNAQkBFhFh
ZG1pbkBqdW5pcGVyLmNvbTAeFw0xNzAxMTAwNjE5NTNaFw0yNzAxMDgwNjE5NTNa
MIGDMQswCQYDVQQGEwJVUzETMBEGA1UECBMKQ2FsaWZvcm5pYTESMBAGA1UEBxMJ
U3Vubnl2YWxlMRUwEwYDVQQKEwxPcGVuQ29udHJhaWwxEjAQBgNVBAMTCTEwLjIu
MC4xMDEgMB4GCSqGSIb3DQEJARYRYWRtaW5AanVuaXBlci5jb20wgZ8wDQYJKoZI
hvcNAQEBBQADgY0AMIGJAoGBAMsfDHtJtHNiGYIobMJo2uzLVMb2bkC92SsK0LR7
cR7dFfxtOwteoOKhiewH5RFiWGnKQ0q/JBcjEiI8isWpvnty2ApSL0pnTCxeSmzW
sclnt6fOjImoOuRTaJknhqckJqOOzj4ikyCwVwk8q5SPl3BRPNTs1wDR+FqOr0P/
C82fAgMBAAEwDQYJKoZIhvcNAQEFBQADgYEAmPZ8Jusbz8F5SM43RZ9OLZ6d+n7X
y3J0MECIkVhu13O/sZ+8OWFE9ADMPjJAN/v+BhyzkMBscVDQE34WkqWcxA5QnQOZ
UfrTUBAuwivchUbfFDOucQ0u28s3ir98iQPjArSbsQr7rKL78zdQ2TqHKiQR6pjX
ahhTnUDOcwVnZ8k=
-----END CERTIFICATE-----
